target datalayout = "e-m:e-p270:32:32-p271:32:32-p272:64:64-i64:64-i128:128-f80:128-n8:16:32:64-S128"
target triple = "x86_64-pc-linux-gnu"

%struct.XML_Memory_Handling_Suite = type { ptr, ptr, ptr }
%struct.XML_ParserStruct = type { ptr, ptr, ptr, %struct.XML_Memory_Handling_Suite, ptr, ptr, ptr, i64, ptr, i64, i8, i32, ptr, ptr, ptr, ptr, ptr, ptr, ptr, ptr, ptr, ptr, ptr, ptr, ptr, ptr, ptr, ptr, ptr, ptr, ptr, ptr, ptr, ptr, ptr, ptr, ptr, ptr, %struct.INIT_ENCODING, ptr, ptr, i8, i8, ptr, ptr, ptr, ptr, %struct.prolog_state, ptr, i32, ptr, ptr, ptr, ptr, ptr, i8, i32, ptr, ptr, ptr, ptr, ptr, ptr, ptr, ptr, ptr, i8, i8, ptr, ptr, ptr, ptr, ptr, ptr, i32, i32, i32, ptr, ptr, i64, i8, %struct.position, %struct.STRING_POOL, %struct.STRING_POOL, ptr, i32, i8, ptr, %struct.XML_ParsingStatus, i8, i8, i32, i64, %struct.accounting, %struct.entity_stats }
%struct.INIT_ENCODING = type { %struct.encoding, ptr }
%struct.encoding = type { [4 x ptr], [2 x ptr], ptr, ptr, ptr, ptr, ptr, ptr, ptr, ptr, ptr, ptr, i32, i8, i8 }
%struct.prolog_state = type { ptr, i32, i32, i32, i32, i32 }
%struct.position = type { i64, i64 }
%struct.STRING_POOL = type { ptr, ptr, ptr, ptr, ptr, ptr }
%struct.XML_ParsingStatus = type { i32, i8 }
%struct.accounting = type { i64, i64, i64, float, i64 }
%struct.entity_stats = type { i32, i32, i32, i64 }
%struct.XML_Encoding = type { [256 x i32], ptr, ptr, ptr }

; Function Attrs: nounwind uwtable
define internal i32 @handleUnknownEncoding(ptr noundef %0, ptr noundef %1) #0 {
  %3 = alloca i32, align 4
  %4 = alloca ptr, align 8
  %5 = alloca ptr, align 8
  %6 = alloca %struct.XML_Encoding, align 8
  %7 = alloca i32, align 4
  %8 = alloca ptr, align 8
  %9 = alloca i32, align 4
  store ptr %0, ptr %4, align 8, !tbaa !12
  store ptr %1, ptr %5, align 8, !tbaa !3
  %10 = load ptr, ptr %4, align 8, !tbaa !12
  %11 = getelementptr inbounds nuw %struct.XML_ParserStruct, ptr %10, i32 0, i32 32
  %12 = load ptr, ptr %11, align 8, !tbaa !50
  %13 = icmp ne ptr %12, null
  br i1 %13, label %14, label %111

14:                                               ; preds = %2
  call void @llvm.lifetime.start.p0(i64 1048, ptr %6) #11
  call void @llvm.lifetime.start.p0(i64 4, ptr %7) #11
  store i32 0, ptr %7, align 4, !tbaa !174
  br label %15

15:                                               ; preds = %23, %14
  %16 = load i32, ptr %7, align 4, !tbaa !174
  %17 = icmp slt i32 %16, 256
  br i1 %17, label %18, label %26

18:                                               ; preds = %15
  %19 = getelementptr inbounds nuw %struct.XML_Encoding, ptr %6, i32 0, i32 0
  %20 = load i32, ptr %7, align 4, !tbaa !174
  %21 = sext i32 %20 to i64
  %22 = getelementptr [256 x i32], ptr %19, i64 0, i64 %21
  store i32 -1, ptr %22, align 4, !tbaa !174
  br label %23

23:                                               ; preds = %18
  %24 = load i32, ptr %7, align 4, !tbaa !174
  %25 = add i32 %24, 1
  store i32 %25, ptr %7, align 4, !tbaa !174
  br label %15, !llvm.loop !245

26:                                               ; preds = %15
  %27 = getelementptr inbounds nuw %struct.XML_Encoding, ptr %6, i32 0, i32 2
  store ptr null, ptr %27, align 8, !tbaa !246
  %28 = getelementptr inbounds nuw %struct.XML_Encoding, ptr %6, i32 0, i32 1
  store ptr null, ptr %28, align 8, !tbaa !248
  %29 = getelementptr inbounds nuw %struct.XML_Encoding, ptr %6, i32 0, i32 3
  store ptr null, ptr %29, align 8, !tbaa !249
  %30 = load ptr, ptr %4, align 8, !tbaa !12
  %31 = getelementptr inbounds nuw %struct.XML_ParserStruct, ptr %30, i32 0, i32 32
  %32 = load ptr, ptr %31, align 8, !tbaa !50
  %33 = load ptr, ptr %4, align 8, !tbaa !12
  %34 = getelementptr inbounds nuw %struct.XML_ParserStruct, ptr %33, i32 0, i32 45
  %35 = load ptr, ptr %34, align 8, !tbaa !51
  %36 = load ptr, ptr %5, align 8, !tbaa !3
  %37 = call i32 %32(ptr noundef %35, ptr noundef %36, ptr noundef %6)
  %38 = icmp ne i32 %37, 0
  br i1 %38, label %39, label %98

39:                                               ; preds = %26
  call void @llvm.lifetime.start.p0(i64 8, ptr %8) #11
  %40 = load ptr, ptr %4, align 8, !tbaa !12
  %41 = getelementptr inbounds nuw %struct.XML_ParserStruct, ptr %40, i32 0, i32 3
  %42 = getelementptr inbounds nuw %struct.XML_Memory_Handling_Suite, ptr %41, i32 0, i32 0
  %43 = load ptr, ptr %42, align 8, !tbaa !39
  %44 = call i32 @PyExpat_XmlSizeOfUnknownEncoding()
  %45 = sext i32 %44 to i64
  %46 = call ptr %43(i64 noundef %45)
  %47 = load ptr, ptr %4, align 8, !tbaa !12
  %48 = getelementptr inbounds nuw %struct.XML_ParserStruct, ptr %47, i32 0, i32 43
  store ptr %46, ptr %48, align 8, !tbaa !75
  %49 = load ptr, ptr %4, align 8, !tbaa !12
  %50 = getelementptr inbounds nuw %struct.XML_ParserStruct, ptr %49, i32 0, i32 43
  %51 = load ptr, ptr %50, align 8, !tbaa !75
  %52 = icmp ne ptr %51, null
  br i1 %52, label %63, label %53

53:                                               ; preds = %39
  %54 = getelementptr inbounds nuw %struct.XML_Encoding, ptr %6, i32 0, i32 3
  %55 = load ptr, ptr %54, align 8, !tbaa !249
  %56 = icmp ne ptr %55, null
  br i1 %56, label %57, label %62

57:                                               ; preds = %53
  %58 = getelementptr inbounds nuw %struct.XML_Encoding, ptr %6, i32 0, i32 3
  %59 = load ptr, ptr %58, align 8, !tbaa !249
  %60 = getelementptr inbounds nuw %struct.XML_Encoding, ptr %6, i32 0, i32 1
  %61 = load ptr, ptr %60, align 8, !tbaa !248
  call void %59(ptr noundef %61)
  br label %62

62:                                               ; preds = %57, %53
  store i32 1, ptr %3, align 4
  store i32 1, ptr %9, align 4
  br label %95

63:                                               ; preds = %39
  %64 = load ptr, ptr %4, align 8, !tbaa !12
  %65 = getelementptr inbounds nuw %struct.XML_ParserStruct, ptr %64, i32 0, i32 41
  %66 = load i8, ptr %65, align 8, !tbaa !53
  %67 = zext i8 %66 to i32
  %68 = icmp ne i32 %67, 0
  %69 = select i1 %68, ptr @PyExpat_XmlInitUnknownEncodingNS, ptr @PyExpat_XmlInitUnknownEncoding
  %70 = load ptr, ptr %4, align 8, !tbaa !12
  %71 = getelementptr inbounds nuw %struct.XML_ParserStruct, ptr %70, i32 0, i32 43
  %72 = load ptr, ptr %71, align 8, !tbaa !75
  %73 = getelementptr inbounds nuw %struct.XML_Encoding, ptr %6, i32 0, i32 0
  %74 = getelementptr inbounds [256 x i32], ptr %73, i64 0, i64 0
  %75 = getelementptr inbounds nuw %struct.XML_Encoding, ptr %6, i32 0, i32 2
  %76 = load ptr, ptr %75, align 8, !tbaa !246
  %77 = getelementptr inbounds nuw %struct.XML_Encoding, ptr %6, i32 0, i32 1
  %78 = load ptr, ptr %77, align 8, !tbaa !248
  %79 = call ptr %69(ptr noundef %72, ptr noundef %74, ptr noundef %76, ptr noundef %78)
  store ptr %79, ptr %8, align 8, !tbaa !228
  %80 = load ptr, ptr %8, align 8, !tbaa !228
  %81 = icmp ne ptr %80, null
  br i1 %81, label %82, label %94

82:                                               ; preds = %63
  %83 = getelementptr inbounds nuw %struct.XML_Encoding, ptr %6, i32 0, i32 1
  %84 = load ptr, ptr %83, align 8, !tbaa !248
  %85 = load ptr, ptr %4, align 8, !tbaa !12
  %86 = getelementptr inbounds nuw %struct.XML_ParserStruct, ptr %85, i32 0, i32 44
  store ptr %84, ptr %86, align 8, !tbaa !77
  %87 = getelementptr inbounds nuw %struct.XML_Encoding, ptr %6, i32 0, i32 3
  %88 = load ptr, ptr %87, align 8, !tbaa !249
  %89 = load ptr, ptr %4, align 8, !tbaa !12
  %90 = getelementptr inbounds nuw %struct.XML_ParserStruct, ptr %89, i32 0, i32 46
  store ptr %88, ptr %90, align 8, !tbaa !76
  %91 = load ptr, ptr %8, align 8, !tbaa !228
  %92 = load ptr, ptr %4, align 8, !tbaa !12
  %93 = getelementptr inbounds nuw %struct.XML_ParserStruct, ptr %92, i32 0, i32 37
  store ptr %91, ptr %93, align 8, !tbaa !213
  store i32 0, ptr %3, align 4
  store i32 1, ptr %9, align 4
  br label %95

94:                                               ; preds = %63
  store i32 0, ptr %9, align 4
  br label %95

95:                                               ; preds = %94, %82, %62
  call void @llvm.lifetime.end.p0(i64 8, ptr %8) #11
  %96 = load i32, ptr %9, align 4
  switch i32 %96, label %108 [
    i32 0, label %97
  ]

97:                                               ; preds = %95
  br label %98

98:                                               ; preds = %97, %26
  %99 = getelementptr inbounds nuw %struct.XML_Encoding, ptr %6, i32 0, i32 3
  %100 = load ptr, ptr %99, align 8, !tbaa !249
  %101 = icmp ne ptr %100, null
  br i1 %101, label %102, label %107

102:                                              ; preds = %98
  %103 = getelementptr inbounds nuw %struct.XML_Encoding, ptr %6, i32 0, i32 3
  %104 = load ptr, ptr %103, align 8, !tbaa !249
  %105 = getelementptr inbounds nuw %struct.XML_Encoding, ptr %6, i32 0, i32 1
  %106 = load ptr, ptr %105, align 8, !tbaa !248
  call void %104(ptr noundef %106)
  br label %107

107:                                              ; preds = %102, %98
  store i32 0, ptr %9, align 4
  br label %108

108:                                              ; preds = %107, %95
  call void @llvm.lifetime.end.p0(i64 4, ptr %7) #11
  call void @llvm.lifetime.end.p0(i64 1048, ptr %6) #11
  %109 = load i32, ptr %9, align 4
  switch i32 %109, label %114 [
    i32 0, label %110
    i32 1, label %112
  ]

110:                                              ; preds = %108
  br label %111

111:                                              ; preds = %110, %2
  store i32 18, ptr %3, align 4
  br label %112

112:                                              ; preds = %111, %108
  %113 = load i32, ptr %3, align 4
  ret i32 %113

114:                                              ; preds = %108
  unreachable
}

; Function Attrs: nounwind uwtable
define internal i32 @initializeEncoding(ptr noundef %0) #0 {
  %2 = alloca i32, align 4
  %3 = alloca ptr, align 8
  %4 = alloca ptr, align 8
  %5 = alloca i32, align 4
  store ptr %0, ptr %3, align 8, !tbaa !12
  call void @llvm.lifetime.start.p0(i64 8, ptr %4) #11
  %6 = load ptr, ptr %3, align 8, !tbaa !12
  %7 = getelementptr inbounds nuw %struct.XML_ParserStruct, ptr %6, i32 0, i32 40
  %8 = load ptr, ptr %7, align 8, !tbaa !58
  store ptr %8, ptr %4, align 8, !tbaa !3
  %9 = load ptr, ptr %3, align 8, !tbaa !12
  %10 = getelementptr inbounds nuw %struct.XML_ParserStruct, ptr %9, i32 0, i32 41
  %11 = load i8, ptr %10, align 8, !tbaa !53
  %12 = zext i8 %11 to i32
  %13 = icmp ne i32 %12, 0
  %14 = select i1 %13, ptr @PyExpat_XmlInitEncodingNS, ptr @PyExpat_XmlInitEncoding
  %15 = load ptr, ptr %3, align 8, !tbaa !12
  %16 = getelementptr inbounds nuw %struct.XML_ParserStruct, ptr %15, i32 0, i32 38
  %17 = load ptr, ptr %3, align 8, !tbaa !12
  %18 = getelementptr inbounds nuw %struct.XML_ParserStruct, ptr %17, i32 0, i32 37
  %19 = load ptr, ptr %4, align 8, !tbaa !3
  %20 = call i32 %14(ptr noundef %16, ptr noundef %18, ptr noundef %19)
  %21 = icmp ne i32 %20, 0
  br i1 %21, label %22, label %23

22:                                               ; preds = %1
  store i32 0, ptr %2, align 4
  store i32 1, ptr %5, align 4
  br label %29

23:                                               ; preds = %1
  %24 = load ptr, ptr %3, align 8, !tbaa !12
  %25 = load ptr, ptr %3, align 8, !tbaa !12
  %26 = getelementptr inbounds nuw %struct.XML_ParserStruct, ptr %25, i32 0, i32 40
  %27 = load ptr, ptr %26, align 8, !tbaa !58
  %28 = call i32 @handleUnknownEncoding(ptr noundef %24, ptr noundef %27)
  store i32 %28, ptr %2, align 4
  store i32 1, ptr %5, align 4
  br label %29

29:                                               ; preds = %23, %22
  call void @llvm.lifetime.end.p0(i64 8, ptr %4) #11
  %30 = load i32, ptr %2, align 4
  ret i32 %30
}