; Function Attrs: nounwind uwtable
define internal fastcc range(i32 0, 19) i32 @initializeEncoding(ptr noundef %0) unnamed_addr #0 {
  %2 = alloca %struct.XML_Encoding, align 8
  %3 = getelementptr inbounds nuw i8, ptr %0, i64 464
  %4 = load ptr, ptr %3, align 8, !tbaa !64
  %5 = getelementptr inbounds nuw i8, ptr %0, i64 472
  %6 = load i8, ptr %5, align 8, !tbaa !62
  %.not = icmp eq i8 %6, 0
  %7 = select i1 %.not, ptr @PyExpat_XmlInitEncoding, ptr @PyExpat_XmlInitEncodingNS
  %8 = getelementptr inbounds nuw i8, ptr %0, i64 312
  %9 = getelementptr inbounds nuw i8, ptr %0, i64 304
  %10 = tail call i32 %7(ptr noundef nonnull %8, ptr noundef nonnull %9, ptr noundef %4) #25, !callees !218
  %.not7 = icmp eq i32 %10, 0
  br i1 %.not7, label %11, label %handleUnknownEncoding.exit

11:                                               ; preds = %1
  %12 = getelementptr inbounds nuw i8, ptr %0, i64 264
  %13 = load ptr, ptr %12, align 8, !tbaa !59
  %.not.i = icmp eq ptr %13, null
  br i1 %.not.i, label %handleUnknownEncoding.exit, label %14

14:                                               ; preds = %11
  %15 = load ptr, ptr %3, align 8, !tbaa !64
  call void @llvm.lifetime.start.p0(i64 1048, ptr nonnull %2) #25
  call void @llvm.memset.p0.i64(ptr noundef nonnull align 8 dereferenceable(1024) %2, i8 -1, i64 1024, i1 false), !tbaa !116
  %16 = getelementptr inbounds nuw i8, ptr %2, i64 1032
  %17 = getelementptr inbounds nuw i8, ptr %2, i64 1024
  %18 = getelementptr inbounds nuw i8, ptr %2, i64 1040
  %19 = getelementptr inbounds nuw i8, ptr %0, i64 496
  call void @llvm.memset.p0.i64(ptr noundef nonnull align 8 dereferenceable(24) %17, i8 0, i64 24, i1 false)
  %20 = load ptr, ptr %19, align 8, !tbaa !60
  %21 = call i32 %13(ptr noundef %20, ptr noundef %15, ptr noundef nonnull %2) #25
  %.not26.i = icmp eq i32 %21, 0
  br i1 %.not26.i, label %44, label %22

22:                                               ; preds = %14
  %23 = getelementptr inbounds nuw i8, ptr %0, i64 24
  %24 = load ptr, ptr %23, align 8, !tbaa !38
  %25 = call i32 @PyExpat_XmlSizeOfUnknownEncoding() #25
  %26 = sext i32 %25 to i64
  %27 = call ptr %24(i64 noundef %26) #25
  %28 = getelementptr inbounds nuw i8, ptr %0, i64 480
  store ptr %27, ptr %28, align 8, !tbaa !83
  %.not27.i = icmp eq ptr %27, null
  br i1 %.not27.i, label %29, label %33

29:                                               ; preds = %22
  %30 = load ptr, ptr %18, align 8, !tbaa !219
  %.not28.i = icmp eq ptr %30, null
  br i1 %.not28.i, label %.sink.split.i, label %31

31:                                               ; preds = %29
  %32 = load ptr, ptr %17, align 8, !tbaa !221
  call void %30(ptr noundef %32) #25
  br label %.sink.split.i

33:                                               ; preds = %22
  %34 = load i8, ptr %5, align 8, !tbaa !62
  %.not29.i = icmp eq i8 %34, 0
  %35 = select i1 %.not29.i, ptr @PyExpat_XmlInitUnknownEncoding, ptr @PyExpat_XmlInitUnknownEncodingNS
  %36 = load ptr, ptr %16, align 8, !tbaa !222
  %37 = load ptr, ptr %17, align 8, !tbaa !221
  %38 = call ptr %35(ptr noundef nonnull %27, ptr noundef nonnull %2, ptr noundef %36, ptr noundef %37) #25, !callees !223
  %.not30.i = icmp eq ptr %38, null
  br i1 %.not30.i, label %44, label %39

39:                                               ; preds = %33
  %40 = load ptr, ptr %17, align 8, !tbaa !221
  %41 = getelementptr inbounds nuw i8, ptr %0, i64 488
  store ptr %40, ptr %41, align 8, !tbaa !85
  %42 = load ptr, ptr %18, align 8, !tbaa !219
  %43 = getelementptr inbounds nuw i8, ptr %0, i64 504
  store ptr %42, ptr %43, align 8, !tbaa !84
  store ptr %38, ptr %9, align 8, !tbaa !206
  br label %.sink.split.i

44:                                               ; preds = %33, %14
  %45 = load ptr, ptr %18, align 8, !tbaa !219
  %.not31.i = icmp eq ptr %45, null
  br i1 %.not31.i, label %.sink.split.i, label %46

46:                                               ; preds = %44
  %47 = load ptr, ptr %17, align 8, !tbaa !221
  call void %45(ptr noundef %47) #25
  br label %.sink.split.i

.sink.split.i:                                    ; preds = %46, %44, %39, %31, %29
  %.3.ph.i = phi i32 [ 18, %46 ], [ 18, %44 ], [ 1, %29 ], [ 1, %31 ], [ 0, %39 ]
  call void @llvm.lifetime.end.p0(i64 1048, ptr nonnull %2) #25
  br label %handleUnknownEncoding.exit

handleUnknownEncoding.exit:                       ; preds = %.sink.split.i, %11, %1
  %.0 = phi i32 [ 0, %1 ], [ 18, %11 ], [ %.3.ph.i, %.sink.split.i ]
  ret i32 %.0
}